target datalayout = "e-m:e-p270:32:32-p271:32:32-p272:64:64-i64:64-i128:128-f80:128-n8:16:32:64-S128"
target triple = "x86_64-pc-linux-gnu"

%struct._spdu_pdu_transport_mapping = type { i32, i32 }
%struct._GList = type { ptr, ptr, ptr }

@spdu_pdu_transport_mapping = internal global ptr null, align 8
@spdu_pdu_transport_mapping_num = internal global i32 0, align 4
@signal_pdu_handle_pdu_transport = internal global ptr null, align 8
@data_spdu_pdu_transport_mappings = internal global ptr null, align 8
@.str.303 = private unnamed_addr constant [17 x i8] c"pdu_transport.id\00", align 1

; Function Attrs: null_pointer_is_valid sspstrong uwtable
define internal void @register_signal_pdu_pdu_transport() #0 {
  %1 = alloca ptr, align 8
  %2 = alloca ptr, align 8
  %3 = load ptr, ptr @signal_pdu_handle_pdu_transport, align 8
  %4 = icmp eq ptr %3, null
  br i1 %4, label %5, label %6

5:                                                ; preds = %0
  br label %30

6:                                                ; preds = %0
  %7 = load ptr, ptr @signal_pdu_handle_pdu_transport, align 8
  call void @dissector_delete_all(ptr noundef @.str.303, ptr noundef %7)
  %8 = load ptr, ptr @data_spdu_pdu_transport_mappings, align 8
  %9 = icmp ne ptr %8, null
  br i1 %9, label %10, label %30

10:                                               ; preds = %6
  call void @llvm.lifetime.start.p0(i64 8, ptr %1) #14
  %11 = load ptr, ptr @data_spdu_pdu_transport_mappings, align 8
  %12 = call ptr @g_hash_table_get_keys(ptr noundef %11)
  store ptr %12, ptr %1, align 8
  call void @llvm.lifetime.start.p0(i64 8, ptr %2) #14
  %13 = load ptr, ptr %1, align 8
  store ptr %13, ptr %2, align 8
  br label %14

14:                                               ; preds = %24, %10
  %15 = load ptr, ptr %2, align 8
  %16 = icmp ne ptr %15, null
  br i1 %16, label %17, label %28

17:                                               ; preds = %14
  %18 = load ptr, ptr %2, align 8
  %19 = getelementptr inbounds nuw %struct._GList, ptr %18, i32 0, i32 0
  %20 = load ptr, ptr %19, align 8
  %21 = ptrtoint ptr %20 to i64
  %22 = trunc i64 %21 to i32
  %23 = load ptr, ptr @signal_pdu_handle_pdu_transport, align 8
  call void @dissector_add_uint(ptr noundef @.str.303, i32 noundef %22, ptr noundef %23)
  br label %24

24:                                               ; preds = %17
  %25 = load ptr, ptr %2, align 8
  %26 = getelementptr inbounds nuw %struct._GList, ptr %25, i32 0, i32 1
  %27 = load ptr, ptr %26, align 8
  store ptr %27, ptr %2, align 8
  br label %14, !llvm.loop !29

28:                                               ; preds = %14
  %29 = load ptr, ptr %1, align 8
  call void @g_list_free(ptr noundef %29)
  call void @llvm.lifetime.end.p0(i64 8, ptr %2) #14
  call void @llvm.lifetime.end.p0(i64 8, ptr %1) #14
  br label %30

30:                                               ; preds = %5, %28, %6
  ret void
}

; Function Attrs: null_pointer_is_valid sspstrong uwtable
define internal void @post_update_spdu_pdu_transport_mapping_cb() #0 {
  %1 = alloca i32, align 4
  %2 = load ptr, ptr @data_spdu_pdu_transport_mappings, align 8
  %3 = icmp ne ptr %2, null
  br i1 %3, label %4, label %6

4:                                                ; preds = %0
  %5 = load ptr, ptr @data_spdu_pdu_transport_mappings, align 8
  call void @g_hash_table_destroy(ptr noundef %5)
  br label %6

6:                                                ; preds = %4, %0
  %7 = call ptr @g_hash_table_new_full(ptr noundef @g_direct_hash, ptr noundef @g_direct_equal, ptr noundef null, ptr noundef null)
  store ptr %7, ptr @data_spdu_pdu_transport_mappings, align 8
  call void @llvm.lifetime.start.p0(i64 4, ptr %1) #14
  store i32 0, ptr %1, align 4
  br label %8

8:                                                ; preds = %28, %6
  %9 = load i32, ptr %1, align 4
  %10 = load i32, ptr @spdu_pdu_transport_mapping_num, align 4
  %11 = icmp ult i32 %9, %10
  br i1 %11, label %13, label %12

12:                                               ; preds = %8
  call void @llvm.lifetime.end.p0(i64 4, ptr %1) #14
  br label %31

13:                                               ; preds = %8
  %14 = load ptr, ptr @data_spdu_pdu_transport_mappings, align 8
  %15 = load ptr, ptr @spdu_pdu_transport_mapping, align 8
  %16 = load i32, ptr %1, align 4
  %17 = zext i32 %16 to i64
  %18 = getelementptr %struct._spdu_pdu_transport_mapping, ptr %15, i64 %17
  %19 = getelementptr inbounds nuw %struct._spdu_pdu_transport_mapping, ptr %18, i32 0, i32 0
  %20 = load i32, ptr %19, align 4
  %21 = zext i32 %20 to i64
  %22 = inttoptr i64 %21 to ptr
  %23 = load ptr, ptr @spdu_pdu_transport_mapping, align 8
  %24 = load i32, ptr %1, align 4
  %25 = zext i32 %24 to i64
  %26 = getelementptr %struct._spdu_pdu_transport_mapping, ptr %23, i64 %25
  %27 = call i32 @g_hash_table_insert(ptr noundef %14, ptr noundef %22, ptr noundef %26)
  br label %28

28:                                               ; preds = %13
  %29 = load i32, ptr %1, align 4
  %30 = add i32 %29, 1
  store i32 %30, ptr %1, align 4
  br label %8, !llvm.loop !14

31:                                               ; preds = %12
  call void @register_signal_pdu_pdu_transport()
  ret void
}